; Function Attrs: mustprogress uwtable
define dso_local void @_ZNK5vcpkg30FullyBufferedDiagnosticContext8print_toERNS_11MessageSinkE(ptr noundef nonnull readonly align 8 captures(none) dereferenceable(32) %0, ptr noundef nonnull align 8 dereferenceable(8) %1) local_unnamed_addr #0 align 2 {
  %3 = getelementptr inbounds nuw i8, ptr %0, i64 8
  %4 = load ptr, ptr %3, align 8, !tbaa !78
  %5 = getelementptr inbounds nuw i8, ptr %0, i64 16
  %6 = load ptr, ptr %5, align 8, !tbaa !78
  %.not8 = icmp eq ptr %4, %6
  br i1 %.not8, label %._crit_edge, label %.lr.ph

._crit_edge:                                      ; preds = %.lr.ph, %2
  ret void

.lr.ph:                                           ; preds = %2, %.lr.ph
  %.sroa.05.09 = phi ptr [ %9, %.lr.ph ], [ %4, %2 ]
  %7 = load ptr, ptr %1, align 8, !tbaa !4
  %8 = load ptr, ptr %7, align 8
  tail call void %8(ptr noundef nonnull align 8 dereferenceable(8) %1, ptr noundef nonnull align 8 dereferenceable(24) %.sroa.05.09)
  %9 = getelementptr inbounds nuw i8, ptr %.sroa.05.09, i64 24
  %.not = icmp eq ptr %9, %6
  br i1 %.not, label %._crit_edge, label %.lr.ph
}